; Function Attrs: nounwind uwtable
define internal range(i32 0, 2) i32 @fd_free(ptr noundef captures(address_is_null) %0) #1 {
  %2 = icmp eq ptr %0, null
  br i1 %2, label %15, label %3

3:                                                ; preds = %1
  %4 = getelementptr inbounds nuw i8, ptr %0, i64 44
  %5 = load i32, ptr %4, align 4, !tbaa !22
  %.not = icmp eq i32 %5, 0
  br i1 %.not, label %15, label %6

6:                                                ; preds = %3
  %7 = getelementptr inbounds nuw i8, ptr %0, i64 40
  %8 = load i32, ptr %7, align 8, !tbaa !23
  %.not7 = icmp eq i32 %8, 0
  br i1 %.not7, label %13, label %9

9:                                                ; preds = %6
  %10 = getelementptr inbounds nuw i8, ptr %0, i64 56
  %11 = load i32, ptr %10, align 8, !tbaa !7
  %12 = tail call i32 @close(i32 noundef %11) #9
  br label %13

13:                                               ; preds = %9, %6
  store i32 0, ptr %7, align 8, !tbaa !23
  %14 = getelementptr inbounds nuw i8, ptr %0, i64 48
  store i32 0, ptr %14, align 8, !tbaa !18
  br label %15

15:                                               ; preds = %3, %13, %1
  %.0 = phi i32 [ 0, %1 ], [ 1, %13 ], [ 1, %3 ]
  ret i32 %.0
}